target datalayout = "e-m:e-p270:32:32-p271:32:32-p272:64:64-i64:64-i128:128-f80:128-n8:16:32:64-S128"
target triple = "x86_64-pc-linux-gnu"

%struct.Vector3 = type { float, float, float }
%struct.Vector2 = type { float, float }
%struct.Mesh = type { i32, i32, ptr, ptr, ptr, ptr, ptr, ptr, ptr, ptr, ptr, ptr, ptr, ptr, i32, i32, ptr }

; Function Attrs: nounwind uwtable
define void @GenMeshPoly(ptr dead_on_unwind noalias writable sret(%struct.Mesh) align 8 %0, i32 noundef %1, float noundef %2) #0 {
  %4 = alloca i32, align 4
  %5 = alloca float, align 4
  %6 = alloca i32, align 4
  %7 = alloca ptr, align 8
  %8 = alloca float, align 4
  %9 = alloca float, align 4
  %10 = alloca i32, align 4
  %11 = alloca %struct.Vector3, align 4
  %12 = alloca %struct.Vector3, align 4
  %13 = alloca %struct.Vector3, align 4
  %14 = alloca ptr, align 8
  %15 = alloca i32, align 4
  %16 = alloca %struct.Vector3, align 4
  %17 = alloca ptr, align 8
  %18 = alloca i32, align 4
  %19 = alloca %struct.Vector2, align 4
  %20 = alloca i32, align 4
  %21 = alloca i32, align 4
  %22 = alloca i32, align 4
  store i32 %1, ptr %4, align 4
  store float %2, ptr %5, align 4
  call void @llvm.memset.p0.i64(ptr align 8 %0, i8 0, i64 120, i1 false)
  %23 = load i32, ptr %4, align 4
  %24 = icmp slt i32 %23, 3
  br i1 %24, label %25, label %26

25:                                               ; preds = %3
  br label %300

26:                                               ; preds = %3
  call void @llvm.lifetime.start.p0(i64 4, ptr %6) #16
  %27 = load i32, ptr %4, align 4
  %28 = mul nsw i32 %27, 3
  store i32 %28, ptr %6, align 4
  call void @llvm.lifetime.start.p0(i64 8, ptr %7) #16
  %29 = load i32, ptr %6, align 4
  %30 = sext i32 %29 to i64
  %31 = mul i64 %30, 12
  %32 = call noalias ptr @malloc(i64 noundef %31) #20
  store ptr %32, ptr %7, align 8
  call void @llvm.lifetime.start.p0(i64 4, ptr %8) #16
  store float 0.000000e+00, ptr %8, align 4
  call void @llvm.lifetime.start.p0(i64 4, ptr %9) #16
  %33 = load i32, ptr %4, align 4
  %34 = sitofp i32 %33 to float
  %35 = fdiv float 3.600000e+02, %34
  store float %35, ptr %9, align 4
  call void @llvm.lifetime.start.p0(i64 4, ptr %10) #16
  store i32 0, ptr %10, align 4
  br label %36

36:                                               ; preds = %93, %26
  %37 = load i32, ptr %10, align 4
  %38 = load i32, ptr %6, align 4
  %39 = sub nsw i32 %38, 2
  %40 = icmp slt i32 %37, %39
  br i1 %40, label %42, label %41

41:                                               ; preds = %36
  call void @llvm.lifetime.end.p0(i64 4, ptr %10) #16
  br label %96

42:                                               ; preds = %36
  %43 = load ptr, ptr %7, align 8
  %44 = load i32, ptr %10, align 4
  %45 = sext i32 %44 to i64
  %46 = getelementptr inbounds %struct.Vector3, ptr %43, i64 %45
  %47 = getelementptr inbounds nuw %struct.Vector3, ptr %11, i32 0, i32 0
  store float 0.000000e+00, ptr %47, align 4
  %48 = getelementptr inbounds nuw %struct.Vector3, ptr %11, i32 0, i32 1
  store float 0.000000e+00, ptr %48, align 4
  %49 = getelementptr inbounds nuw %struct.Vector3, ptr %11, i32 0, i32 2
  store float 0.000000e+00, ptr %49, align 4
  call void @llvm.memcpy.p0.p0.i64(ptr align 4 %46, ptr align 4 %11, i64 12, i1 false)
  %50 = load ptr, ptr %7, align 8
  %51 = load i32, ptr %10, align 4
  %52 = add nsw i32 %51, 1
  %53 = sext i32 %52 to i64
  %54 = getelementptr inbounds %struct.Vector3, ptr %50, i64 %53
  %55 = getelementptr inbounds nuw %struct.Vector3, ptr %12, i32 0, i32 0
  %56 = load float, ptr %8, align 4
  %57 = fmul float 0x3F91DF46A0000000, %56
  %58 = call float @sinf(float noundef %57) #16
  %59 = load float, ptr %5, align 4
  %60 = fmul float %58, %59
  store float %60, ptr %55, align 4
  %61 = getelementptr inbounds nuw %struct.Vector3, ptr %12, i32 0, i32 1
  store float 0.000000e+00, ptr %61, align 4
  %62 = getelementptr inbounds nuw %struct.Vector3, ptr %12, i32 0, i32 2
  %63 = load float, ptr %8, align 4
  %64 = fmul float 0x3F91DF46A0000000, %63
  %65 = call float @cosf(float noundef %64) #16
  %66 = load float, ptr %5, align 4
  %67 = fmul float %65, %66
  store float %67, ptr %62, align 4
  call void @llvm.memcpy.p0.p0.i64(ptr align 4 %54, ptr align 4 %12, i64 12, i1 false)
  %68 = load ptr, ptr %7, align 8
  %69 = load i32, ptr %10, align 4
  %70 = add nsw i32 %69, 2
  %71 = sext i32 %70 to i64
  %72 = getelementptr inbounds %struct.Vector3, ptr %68, i64 %71
  %73 = getelementptr inbounds nuw %struct.Vector3, ptr %13, i32 0, i32 0
  %74 = load float, ptr %8, align 4
  %75 = load float, ptr %9, align 4
  %76 = fadd float %74, %75
  %77 = fmul float 0x3F91DF46A0000000, %76
  %78 = call float @sinf(float noundef %77) #16
  %79 = load float, ptr %5, align 4
  %80 = fmul float %78, %79
  store float %80, ptr %73, align 4
  %81 = getelementptr inbounds nuw %struct.Vector3, ptr %13, i32 0, i32 1
  store float 0.000000e+00, ptr %81, align 4
  %82 = getelementptr inbounds nuw %struct.Vector3, ptr %13, i32 0, i32 2
  %83 = load float, ptr %8, align 4
  %84 = load float, ptr %9, align 4
  %85 = fadd float %83, %84
  %86 = fmul float 0x3F91DF46A0000000, %85
  %87 = call float @cosf(float noundef %86) #16
  %88 = load float, ptr %5, align 4
  %89 = fmul float %87, %88
  store float %89, ptr %82, align 4
  call void @llvm.memcpy.p0.p0.i64(ptr align 4 %72, ptr align 4 %13, i64 12, i1 false)
  %90 = load float, ptr %9, align 4
  %91 = load float, ptr %8, align 4
  %92 = fadd float %91, %90
  store float %92, ptr %8, align 4
  br label %93

93:                                               ; preds = %42
  %94 = load i32, ptr %10, align 4
  %95 = add nsw i32 %94, 3
  store i32 %95, ptr %10, align 4
  br label %36

96:                                               ; preds = %41
  call void @llvm.lifetime.start.p0(i64 8, ptr %14) #16
  %97 = load i32, ptr %6, align 4
  %98 = sext i32 %97 to i64
  %99 = mul i64 %98, 12
  %100 = call noalias ptr @malloc(i64 noundef %99) #20
  store ptr %100, ptr %14, align 8
  call void @llvm.lifetime.start.p0(i64 4, ptr %15) #16
  store i32 0, ptr %15, align 4
  br label %101

101:                                              ; preds = %114, %96
  %102 = load i32, ptr %15, align 4
  %103 = load i32, ptr %6, align 4
  %104 = icmp slt i32 %102, %103
  br i1 %104, label %106, label %105

105:                                              ; preds = %101
  call void @llvm.lifetime.end.p0(i64 4, ptr %15) #16
  br label %117

106:                                              ; preds = %101
  %107 = load ptr, ptr %14, align 8
  %108 = load i32, ptr %15, align 4
  %109 = sext i32 %108 to i64
  %110 = getelementptr inbounds %struct.Vector3, ptr %107, i64 %109
  %111 = getelementptr inbounds nuw %struct.Vector3, ptr %16, i32 0, i32 0
  store float 0.000000e+00, ptr %111, align 4
  %112 = getelementptr inbounds nuw %struct.Vector3, ptr %16, i32 0, i32 1
  store float 1.000000e+00, ptr %112, align 4
  %113 = getelementptr inbounds nuw %struct.Vector3, ptr %16, i32 0, i32 2
  store float 0.000000e+00, ptr %113, align 4
  call void @llvm.memcpy.p0.p0.i64(ptr align 4 %110, ptr align 4 %16, i64 12, i1 false)
  br label %114

114:                                              ; preds = %106
  %115 = load i32, ptr %15, align 4
  %116 = add nsw i32 %115, 1
  store i32 %116, ptr %15, align 4
  br label %101

117:                                              ; preds = %105
  call void @llvm.lifetime.start.p0(i64 8, ptr %17) #16
  %118 = load i32, ptr %6, align 4
  %119 = sext i32 %118 to i64
  %120 = mul i64 %119, 8
  %121 = call noalias ptr @malloc(i64 noundef %120) #20
  store ptr %121, ptr %17, align 8
  call void @llvm.lifetime.start.p0(i64 4, ptr %18) #16
  store i32 0, ptr %18, align 4
  br label %122

122:                                              ; preds = %134, %117
  %123 = load i32, ptr %18, align 4
  %124 = load i32, ptr %6, align 4
  %125 = icmp slt i32 %123, %124
  br i1 %125, label %127, label %126

126:                                              ; preds = %122
  call void @llvm.lifetime.end.p0(i64 4, ptr %18) #16
  br label %137

127:                                              ; preds = %122
  %128 = load ptr, ptr %17, align 8
  %129 = load i32, ptr %18, align 4
  %130 = sext i32 %129 to i64
  %131 = getelementptr inbounds %struct.Vector2, ptr %128, i64 %130
  %132 = getelementptr inbounds nuw %struct.Vector2, ptr %19, i32 0, i32 0
  store float 0.000000e+00, ptr %132, align 4
  %133 = getelementptr inbounds nuw %struct.Vector2, ptr %19, i32 0, i32 1
  store float 0.000000e+00, ptr %133, align 4
  call void @llvm.memcpy.p0.p0.i64(ptr align 4 %131, ptr align 4 %19, i64 8, i1 false)
  br label %134

134:                                              ; preds = %127
  %135 = load i32, ptr %18, align 4
  %136 = add nsw i32 %135, 1
  store i32 %136, ptr %18, align 4
  br label %122

137:                                              ; preds = %126
  %138 = load i32, ptr %6, align 4
  %139 = getelementptr inbounds nuw %struct.Mesh, ptr %0, i32 0, i32 0
  store i32 %138, ptr %139, align 8
  %140 = load i32, ptr %4, align 4
  %141 = getelementptr inbounds nuw %struct.Mesh, ptr %0, i32 0, i32 1
  store i32 %140, ptr %141, align 4
  %142 = getelementptr inbounds nuw %struct.Mesh, ptr %0, i32 0, i32 0
  %143 = load i32, ptr %142, align 8
  %144 = mul nsw i32 %143, 3
  %145 = sext i32 %144 to i64
  %146 = mul i64 %145, 4
  %147 = call noalias ptr @malloc(i64 noundef %146) #20
  %148 = getelementptr inbounds nuw %struct.Mesh, ptr %0, i32 0, i32 2
  store ptr %147, ptr %148, align 8
  %149 = getelementptr inbounds nuw %struct.Mesh, ptr %0, i32 0, i32 0
  %150 = load i32, ptr %149, align 8
  %151 = mul nsw i32 %150, 2
  %152 = sext i32 %151 to i64
  %153 = mul i64 %152, 4
  %154 = call noalias ptr @malloc(i64 noundef %153) #20
  %155 = getelementptr inbounds nuw %struct.Mesh, ptr %0, i32 0, i32 3
  store ptr %154, ptr %155, align 8
  %156 = getelementptr inbounds nuw %struct.Mesh, ptr %0, i32 0, i32 0
  %157 = load i32, ptr %156, align 8
  %158 = mul nsw i32 %157, 3
  %159 = sext i32 %158 to i64
  %160 = mul i64 %159, 4
  %161 = call noalias ptr @malloc(i64 noundef %160) #20
  %162 = getelementptr inbounds nuw %struct.Mesh, ptr %0, i32 0, i32 5
  store ptr %161, ptr %162, align 8
  call void @llvm.lifetime.start.p0(i64 4, ptr %20) #16
  store i32 0, ptr %20, align 4
  br label %163

163:                                              ; preds = %208, %137
  %164 = load i32, ptr %20, align 4
  %165 = getelementptr inbounds nuw %struct.Mesh, ptr %0, i32 0, i32 0
  %166 = load i32, ptr %165, align 8
  %167 = icmp slt i32 %164, %166
  br i1 %167, label %169, label %168

168:                                              ; preds = %163
  call void @llvm.lifetime.end.p0(i64 4, ptr %20) #16
  br label %211

169:                                              ; preds = %163
  %170 = load ptr, ptr %7, align 8
  %171 = load i32, ptr %20, align 4
  %172 = sext i32 %171 to i64
  %173 = getelementptr inbounds %struct.Vector3, ptr %170, i64 %172
  %174 = getelementptr inbounds nuw %struct.Vector3, ptr %173, i32 0, i32 0
  %175 = load float, ptr %174, align 4
  %176 = getelementptr inbounds nuw %struct.Mesh, ptr %0, i32 0, i32 2
  %177 = load ptr, ptr %176, align 8
  %178 = load i32, ptr %20, align 4
  %179 = mul nsw i32 3, %178
  %180 = sext i32 %179 to i64
  %181 = getelementptr inbounds float, ptr %177, i64 %180
  store float %175, ptr %181, align 4
  %182 = load ptr, ptr %7, align 8
  %183 = load i32, ptr %20, align 4
  %184 = sext i32 %183 to i64
  %185 = getelementptr inbounds %struct.Vector3, ptr %182, i64 %184
  %186 = getelementptr inbounds nuw %struct.Vector3, ptr %185, i32 0, i32 1
  %187 = load float, ptr %186, align 4
  %188 = getelementptr inbounds nuw %struct.Mesh, ptr %0, i32 0, i32 2
  %189 = load ptr, ptr %188, align 8
  %190 = load i32, ptr %20, align 4
  %191 = mul nsw i32 3, %190
  %192 = add nsw i32 %191, 1
  %193 = sext i32 %192 to i64
  %194 = getelementptr inbounds float, ptr %189, i64 %193
  store float %187, ptr %194, align 4
  %195 = load ptr, ptr %7, align 8
  %196 = load i32, ptr %20, align 4
  %197 = sext i32 %196 to i64
  %198 = getelementptr inbounds %struct.Vector3, ptr %195, i64 %197
  %199 = getelementptr inbounds nuw %struct.Vector3, ptr %198, i32 0, i32 2
  %200 = load float, ptr %199, align 4
  %201 = getelementptr inbounds nuw %struct.Mesh, ptr %0, i32 0, i32 2
  %202 = load ptr, ptr %201, align 8
  %203 = load i32, ptr %20, align 4
  %204 = mul nsw i32 3, %203
  %205 = add nsw i32 %204, 2
  %206 = sext i32 %205 to i64
  %207 = getelementptr inbounds float, ptr %202, i64 %206
  store float %200, ptr %207, align 4
  br label %208

208:                                              ; preds = %169
  %209 = load i32, ptr %20, align 4
  %210 = add nsw i32 %209, 1
  store i32 %210, ptr %20, align 4
  br label %163

211:                                              ; preds = %168
  call void @llvm.lifetime.start.p0(i64 4, ptr %21) #16
  store i32 0, ptr %21, align 4
  br label %212

212:                                              ; preds = %244, %211
  %213 = load i32, ptr %21, align 4
  %214 = getelementptr inbounds nuw %struct.Mesh, ptr %0, i32 0, i32 0
  %215 = load i32, ptr %214, align 8
  %216 = icmp slt i32 %213, %215
  br i1 %216, label %218, label %217

217:                                              ; preds = %212
  call void @llvm.lifetime.end.p0(i64 4, ptr %21) #16
  br label %247

218:                                              ; preds = %212
  %219 = load ptr, ptr %17, align 8
  %220 = load i32, ptr %21, align 4
  %221 = sext i32 %220 to i64
  %222 = getelementptr inbounds %struct.Vector2, ptr %219, i64 %221
  %223 = getelementptr inbounds nuw %struct.Vector2, ptr %222, i32 0, i32 0
  %224 = load float, ptr %223, align 4
  %225 = getelementptr inbounds nuw %struct.Mesh, ptr %0, i32 0, i32 3
  %226 = load ptr, ptr %225, align 8
  %227 = load i32, ptr %21, align 4
  %228 = mul nsw i32 2, %227
  %229 = sext i32 %228 to i64
  %230 = getelementptr inbounds float, ptr %226, i64 %229
  store float %224, ptr %230, align 4
  %231 = load ptr, ptr %17, align 8
  %232 = load i32, ptr %21, align 4
  %233 = sext i32 %232 to i64
  %234 = getelementptr inbounds %struct.Vector2, ptr %231, i64 %233
  %235 = getelementptr inbounds nuw %struct.Vector2, ptr %234, i32 0, i32 1
  %236 = load float, ptr %235, align 4
  %237 = getelementptr inbounds nuw %struct.Mesh, ptr %0, i32 0, i32 3
  %238 = load ptr, ptr %237, align 8
  %239 = load i32, ptr %21, align 4
  %240 = mul nsw i32 2, %239
  %241 = add nsw i32 %240, 1
  %242 = sext i32 %241 to i64
  %243 = getelementptr inbounds float, ptr %238, i64 %242
  store float %236, ptr %243, align 4
  br label %244

244:                                              ; preds = %218
  %245 = load i32, ptr %21, align 4
  %246 = add nsw i32 %245, 1
  store i32 %246, ptr %21, align 4
  br label %212

247:                                              ; preds = %217
  call void @llvm.lifetime.start.p0(i64 4, ptr %22) #16
  store i32 0, ptr %22, align 4
  br label %248

248:                                              ; preds = %293, %247
  %249 = load i32, ptr %22, align 4
  %250 = getelementptr inbounds nuw %struct.Mesh, ptr %0, i32 0, i32 0
  %251 = load i32, ptr %250, align 8
  %252 = icmp slt i32 %249, %251
  br i1 %252, label %254, label %253

253:                                              ; preds = %248
  call void @llvm.lifetime.end.p0(i64 4, ptr %22) #16
  br label %296

254:                                              ; preds = %248
  %255 = load ptr, ptr %14, align 8
  %256 = load i32, ptr %22, align 4
  %257 = sext i32 %256 to i64
  %258 = getelementptr inbounds %struct.Vector3, ptr %255, i64 %257
  %259 = getelementptr inbounds nuw %struct.Vector3, ptr %258, i32 0, i32 0
  %260 = load float, ptr %259, align 4
  %261 = getelementptr inbounds nuw %struct.Mesh, ptr %0, i32 0, i32 5
  %262 = load ptr, ptr %261, align 8
  %263 = load i32, ptr %22, align 4
  %264 = mul nsw i32 3, %263
  %265 = sext i32 %264 to i64
  %266 = getelementptr inbounds float, ptr %262, i64 %265
  store float %260, ptr %266, align 4
  %267 = load ptr, ptr %14, align 8
  %268 = load i32, ptr %22, align 4
  %269 = sext i32 %268 to i64
  %270 = getelementptr inbounds %struct.Vector3, ptr %267, i64 %269
  %271 = getelementptr inbounds nuw %struct.Vector3, ptr %270, i32 0, i32 1
  %272 = load float, ptr %271, align 4
  %273 = getelementptr inbounds nuw %struct.Mesh, ptr %0, i32 0, i32 5
  %274 = load ptr, ptr %273, align 8
  %275 = load i32, ptr %22, align 4
  %276 = mul nsw i32 3, %275
  %277 = add nsw i32 %276, 1
  %278 = sext i32 %277 to i64
  %279 = getelementptr inbounds float, ptr %274, i64 %278
  store float %272, ptr %279, align 4
  %280 = load ptr, ptr %14, align 8
  %281 = load i32, ptr %22, align 4
  %282 = sext i32 %281 to i64
  %283 = getelementptr inbounds %struct.Vector3, ptr %280, i64 %282
  %284 = getelementptr inbounds nuw %struct.Vector3, ptr %283, i32 0, i32 2
  %285 = load float, ptr %284, align 4
  %286 = getelementptr inbounds nuw %struct.Mesh, ptr %0, i32 0, i32 5
  %287 = load ptr, ptr %286, align 8
  %288 = load i32, ptr %22, align 4
  %289 = mul nsw i32 3, %288
  %290 = add nsw i32 %289, 2
  %291 = sext i32 %290 to i64
  %292 = getelementptr inbounds float, ptr %287, i64 %291
  store float %285, ptr %292, align 4
  br label %293

293:                                              ; preds = %254
  %294 = load i32, ptr %22, align 4
  %295 = add nsw i32 %294, 1
  store i32 %295, ptr %22, align 4
  br label %248

296:                                              ; preds = %253
  %297 = load ptr, ptr %7, align 8
  call void @free(ptr noundef %297) #16
  %298 = load ptr, ptr %14, align 8
  call void @free(ptr noundef %298) #16
  %299 = load ptr, ptr %17, align 8
  call void @free(ptr noundef %299) #16
  call void @UploadMesh(ptr noundef %0, i1 noundef zeroext false)
  call void @llvm.lifetime.end.p0(i64 8, ptr %17) #16
  call void @llvm.lifetime.end.p0(i64 8, ptr %14) #16
  call void @llvm.lifetime.end.p0(i64 4, ptr %9) #16
  call void @llvm.lifetime.end.p0(i64 4, ptr %8) #16
  call void @llvm.lifetime.end.p0(i64 8, ptr %7) #16
  call void @llvm.lifetime.end.p0(i64 4, ptr %6) #16
  br label %300

300:                                              ; preds = %296, %25
  ret void
}