; Function Attrs: nounwind uwtable
define void @GenMeshPoly(ptr dead_on_unwind noalias writable sret(%struct.Mesh) align 8 captures(none) initializes((0, 120)) %0, i32 noundef %1, float noundef %2) local_unnamed_addr #0 {
  tail call void @llvm.memset.p0.i64(ptr noundef nonnull align 8 dereferenceable(120) %0, i8 0, i64 120, i1 false)
  %4 = icmp slt i32 %1, 3
  br i1 %4, label %76, label %.lr.ph.preheader

.lr.ph.preheader:                                 ; preds = %3
  %5 = mul nuw nsw i32 %1, 3
  %6 = zext nneg i32 %5 to i64
  %7 = mul nuw nsw i64 %6, 12
  %8 = tail call noalias ptr @malloc(i64 noundef %7) #59
  %9 = uitofp nneg i32 %1 to float
  %10 = fdiv float 3.600000e+02, %9
  %11 = add nsw i32 %5, -2
  %12 = zext nneg i32 %11 to i64
  br label %.lr.ph

._crit_edge:                                      ; preds = %.lr.ph
  %13 = tail call noalias ptr @malloc(i64 noundef %7) #59
  %umax = tail call i32 @llvm.umax.i32(i32 %5, i32 1)
  %wide.trip.count = zext nneg i32 %umax to i64
  br label %46

.lr.ph:                                           ; preds = %.lr.ph.preheader, %.lr.ph
  %indvars.iv = phi i64 [ 0, %.lr.ph.preheader ], [ %indvars.iv.next, %.lr.ph ]
  %.08492 = phi float [ 0.000000e+00, %.lr.ph.preheader ], [ %22, %.lr.ph ]
  %14 = getelementptr inbounds nuw %struct.Vector3, ptr %8, i64 %indvars.iv
  store float 0.000000e+00, ptr %14, align 4
  %.sroa.245.0..sroa_idx = getelementptr inbounds nuw i8, ptr %14, i64 4
  store float 0.000000e+00, ptr %.sroa.245.0..sroa_idx, align 4
  %.sroa.346.0..sroa_idx = getelementptr inbounds nuw i8, ptr %14, i64 8
  store float 0.000000e+00, ptr %.sroa.346.0..sroa_idx, align 4
  %15 = getelementptr inbounds nuw i8, ptr %14, i64 12
  %16 = fmul float %.08492, 0x3F91DF46A0000000
  %17 = tail call float @sinf(float noundef %16) #57
  %18 = fmul float %2, %17
  %19 = tail call float @cosf(float noundef %16) #57
  %20 = fmul float %2, %19
  store float %18, ptr %15, align 4
  %.sroa.242.0..sroa_idx = getelementptr inbounds nuw i8, ptr %14, i64 16
  store float 0.000000e+00, ptr %.sroa.242.0..sroa_idx, align 4
  %.sroa.343.0..sroa_idx = getelementptr inbounds nuw i8, ptr %14, i64 20
  store float %20, ptr %.sroa.343.0..sroa_idx, align 4
  %21 = getelementptr inbounds nuw i8, ptr %14, i64 24
  %22 = fadd float %10, %.08492
  %23 = fmul float %22, 0x3F91DF46A0000000
  %24 = tail call float @sinf(float noundef %23) #57
  %25 = fmul float %2, %24
  %26 = tail call float @cosf(float noundef %23) #57
  %27 = fmul float %2, %26
  store float %25, ptr %21, align 4
  %.sroa.239.0..sroa_idx = getelementptr inbounds nuw i8, ptr %14, i64 28
  store float 0.000000e+00, ptr %.sroa.239.0..sroa_idx, align 4
  %.sroa.340.0..sroa_idx = getelementptr inbounds nuw i8, ptr %14, i64 32
  store float %27, ptr %.sroa.340.0..sroa_idx, align 4
  %indvars.iv.next = add nuw nsw i64 %indvars.iv, 3
  %28 = icmp samesign ult i64 %indvars.iv.next, %12
  br i1 %28, label %.lr.ph, label %._crit_edge

29:                                               ; preds = %46
  %30 = shl nuw nsw i64 %6, 3
  %31 = tail call noalias ptr @malloc(i64 noundef %30) #59
  %32 = shl nuw nsw i64 %wide.trip.count, 3
  tail call void @llvm.memset.p0.i64(ptr noundef nonnull align 4 dereferenceable(1) %31, i8 0, i64 %32, i1 false)
  store i32 %5, ptr %0, align 8
  %33 = getelementptr inbounds nuw i8, ptr %0, i64 4
  store i32 %1, ptr %33, align 4
  %34 = mul nuw nsw i32 %1, 9
  %35 = zext nneg i32 %34 to i64
  %36 = shl nuw nsw i64 %35, 2
  %37 = tail call noalias ptr @malloc(i64 noundef %36) #59
  %38 = getelementptr inbounds nuw i8, ptr %0, i64 8
  store ptr %37, ptr %38, align 8
  %39 = mul i32 %1, 6
  %40 = sext i32 %39 to i64
  %41 = shl nsw i64 %40, 2
  %42 = tail call noalias ptr @malloc(i64 noundef %41) #59
  %43 = getelementptr inbounds nuw i8, ptr %0, i64 16
  store ptr %42, ptr %43, align 8
  %44 = tail call noalias ptr @malloc(i64 noundef %36) #59
  %45 = getelementptr inbounds nuw i8, ptr %0, i64 32
  store ptr %44, ptr %45, align 8
  br label %48

46:                                               ; preds = %._crit_edge, %46
  %indvars.iv99 = phi i64 [ 0, %._crit_edge ], [ %indvars.iv.next100, %46 ]
  %47 = getelementptr inbounds nuw %struct.Vector3, ptr %13, i64 %indvars.iv99
  store float 0.000000e+00, ptr %47, align 4
  %.sroa.229.0..sroa_idx = getelementptr inbounds nuw i8, ptr %47, i64 4
  store float 1.000000e+00, ptr %.sroa.229.0..sroa_idx, align 4
  %.sroa.3.0..sroa_idx = getelementptr inbounds nuw i8, ptr %47, i64 8
  store float 0.000000e+00, ptr %.sroa.3.0..sroa_idx, align 4
  %indvars.iv.next100 = add nuw nsw i64 %indvars.iv99, 1
  %exitcond.not = icmp eq i64 %indvars.iv.next100, %wide.trip.count
  br i1 %exitcond.not, label %29, label %46

48:                                               ; preds = %29, %48
  %indvars.iv105 = phi i64 [ 0, %29 ], [ %indvars.iv.next106, %48 ]
  %49 = getelementptr inbounds nuw %struct.Vector3, ptr %8, i64 %indvars.iv105
  %50 = load float, ptr %49, align 4
  %.idx = mul nuw nsw i64 %indvars.iv105, 12
  %51 = getelementptr inbounds nuw i8, ptr %37, i64 %.idx
  store float %50, ptr %51, align 4
  %52 = getelementptr inbounds nuw i8, ptr %49, i64 4
  %53 = load float, ptr %52, align 4
  %54 = getelementptr inbounds nuw i8, ptr %51, i64 4
  store float %53, ptr %54, align 4
  %55 = getelementptr inbounds nuw i8, ptr %49, i64 8
  %56 = load float, ptr %55, align 4
  %57 = getelementptr inbounds nuw i8, ptr %51, i64 8
  store float %56, ptr %57, align 4
  %indvars.iv.next106 = add nuw nsw i64 %indvars.iv105, 1
  %exitcond109.not = icmp eq i64 %indvars.iv.next106, %wide.trip.count
  br i1 %exitcond109.not, label %.preheader90, label %48

.preheader90:                                     ; preds = %48, %.preheader90
  %indvars.iv110 = phi i64 [ %indvars.iv.next111, %.preheader90 ], [ 0, %48 ]
  %58 = getelementptr inbounds nuw %struct.Vector2, ptr %31, i64 %indvars.iv110
  %59 = load float, ptr %58, align 4
  %60 = shl nuw nsw i64 %indvars.iv110, 1
  %61 = getelementptr inbounds nuw float, ptr %42, i64 %60
  store float %59, ptr %61, align 4
  %62 = getelementptr inbounds nuw i8, ptr %58, i64 4
  %63 = load float, ptr %62, align 4
  %64 = or disjoint i64 %60, 1
  %65 = getelementptr inbounds nuw float, ptr %42, i64 %64
  store float %63, ptr %65, align 4
  %indvars.iv.next111 = add nuw nsw i64 %indvars.iv110, 1
  %exitcond114.not = icmp eq i64 %indvars.iv.next111, %wide.trip.count
  br i1 %exitcond114.not, label %.preheader, label %.preheader90

66:                                               ; preds = %.preheader
  tail call void @free(ptr noundef %8) #57
  tail call void @free(ptr noundef nonnull %13) #57
  tail call void @free(ptr noundef %31) #57
  tail call void @UploadMesh(ptr noundef nonnull %0, i1 noundef zeroext false)
  br label %76

.preheader:                                       ; preds = %.preheader90, %.preheader
  %indvars.iv115 = phi i64 [ %indvars.iv.next116, %.preheader ], [ 0, %.preheader90 ]
  %67 = getelementptr inbounds nuw %struct.Vector3, ptr %13, i64 %indvars.iv115
  %68 = load float, ptr %67, align 4
  %.idx120 = mul nuw nsw i64 %indvars.iv115, 12
  %69 = getelementptr inbounds nuw i8, ptr %44, i64 %.idx120
  store float %68, ptr %69, align 4
  %70 = getelementptr inbounds nuw i8, ptr %67, i64 4
  %71 = load float, ptr %70, align 4
  %72 = getelementptr inbounds nuw i8, ptr %69, i64 4
  store float %71, ptr %72, align 4
  %73 = getelementptr inbounds nuw i8, ptr %67, i64 8
  %74 = load float, ptr %73, align 4
  %75 = getelementptr inbounds nuw i8, ptr %69, i64 8
  store float %74, ptr %75, align 4
  %indvars.iv.next116 = add nuw nsw i64 %indvars.iv115, 1
  %exitcond119.not = icmp eq i64 %indvars.iv.next116, %wide.trip.count
  br i1 %exitcond119.not, label %66, label %.preheader

76:                                               ; preds = %3, %66
  ret void
}